target datalayout = "e-m:e-p270:32:32-p271:32:32-p272:64:64-i64:64-i128:128-f80:128-n8:16:32:64-S128"
target triple = "x86_64-pc-linux-gnu"

%struct.tsd_s = type { i8, i8, i64, i64, i64, i64, i64, i64, i64, i64, i64, i64, i64, i64, ptr, i64, i64, i64, ptr, ptr, %struct.ticker_geom_s, i8, %struct.tsd_binshards_s, %struct.tsd_link_t, i8, %struct.peak_s, %struct.activity_callback_thunk_s, %struct.tcache_slow_s, %struct.rtree_ctx_s, %struct.atomic_u8_t, i64, i64, i64, i64, %struct.tcache_s, %struct.witness_tsd_s }
%struct.ticker_geom_s = type { i32, i32 }
%struct.tsd_binshards_s = type { [39 x i8] }
%struct.tsd_link_t = type { ptr, ptr }
%struct.peak_s = type { i64, i64 }
%struct.activity_callback_thunk_s = type { ptr, ptr }
%struct.tcache_slow_s = type { %struct.anon.8, %struct.cache_bin_array_descriptor_s, ptr, i32, [39 x i8], [39 x i8], [39 x i8], ptr, ptr }
%struct.anon.8 = type { ptr, ptr }
%struct.cache_bin_array_descriptor_s = type { %struct.anon.9, ptr }
%struct.anon.9 = type { ptr, ptr }
%struct.rtree_ctx_s = type { [16 x %struct.rtree_ctx_cache_elm_s], [8 x %struct.rtree_ctx_cache_elm_s] }
%struct.rtree_ctx_cache_elm_s = type { i64, ptr }
%struct.atomic_u8_t = type { i8 }
%struct.tcache_s = type { ptr, [76 x %struct.cache_bin_s] }
%struct.cache_bin_s = type { ptr, %struct.cache_bin_stats_s, i16, i16, i16 }
%struct.cache_bin_stats_s = type { i64 }
%struct.witness_tsd_s = type { %struct.witness_list_t, i8 }
%struct.witness_list_t = type { ptr }

@je_tsd_booted = external global i8, align 1
@je_tsd_tls = external thread_local(initialexec) global %struct.tsd_s, align 8

; Function Attrs: alwaysinline nounwind uwtable
define internal void @tsd_assert_fast(ptr noundef %0) #3 {
  %2 = alloca ptr, align 8
  store ptr %0, ptr %2, align 8, !tbaa !29
  br label %3

3:                                                ; preds = %1
  br label %4

4:                                                ; preds = %3
  ret void
}

; Function Attrs: alwaysinline nounwind uwtable
define internal zeroext i8 @tsd_state_get(ptr noundef %0) #3 {
  %2 = alloca ptr, align 8
  store ptr %0, ptr %2, align 8, !tbaa !29
  %3 = load ptr, ptr %2, align 8, !tbaa !29
  %4 = getelementptr inbounds nuw %struct.tsd_s, ptr %3, i32 0, i32 29
  %5 = load i8, ptr %4, align 8, !tbaa !31
  ret i8 %5
}

; Function Attrs: alwaysinline nounwind uwtable
define internal zeroext i1 @tsd_get_allocates() #3 {
  ret i1 false
}

; Function Attrs: alwaysinline nounwind uwtable
define internal ptr @tsd_get(i1 noundef zeroext %0) #3 {
  %2 = alloca i8, align 1
  %3 = zext i1 %0 to i8
  store i8 %3, ptr %2, align 1, !tbaa !25
  %4 = call align 8 ptr @llvm.threadlocal.address.p0(ptr align 8 @je_tsd_tls)
  ret ptr %4
}

; Function Attrs: alwaysinline nounwind uwtable
define internal ptr @tsd_tsdn(ptr noundef %0) #3 {
  %2 = alloca ptr, align 8
  store ptr %0, ptr %2, align 8, !tbaa !29
  %3 = load ptr, ptr %2, align 8, !tbaa !29
  ret ptr %3
}

; Function Attrs: alwaysinline nounwind uwtable
define internal ptr @tsd_fetch_impl(i1 noundef zeroext %0, i1 noundef zeroext %1) #3 {
  %3 = alloca ptr, align 8
  %4 = alloca i8, align 1
  %5 = alloca i8, align 1
  %6 = alloca ptr, align 8
  %7 = alloca i32, align 4
  %8 = zext i1 %0 to i8
  store i8 %8, ptr %4, align 1, !tbaa !25
  %9 = zext i1 %1 to i8
  store i8 %9, ptr %5, align 1, !tbaa !25
  call void @llvm.lifetime.start.p0(i64 8, ptr %6) #8
  %10 = load i8, ptr %4, align 1, !tbaa !25, !range !27, !noundef !28
  %11 = trunc i8 %10 to i1
  %12 = call ptr @tsd_get(i1 noundef zeroext %11)
  store ptr %12, ptr %6, align 8, !tbaa !29
  %13 = load i8, ptr %4, align 1, !tbaa !25, !range !27, !noundef !28
  %14 = trunc i8 %13 to i1
  br i1 %14, label %21, label %15

15:                                               ; preds = %2
  %16 = call zeroext i1 @tsd_get_allocates()
  br i1 %16, label %17, label %21

17:                                               ; preds = %15
  %18 = load ptr, ptr %6, align 8, !tbaa !29
  %19 = icmp eq ptr %18, null
  br i1 %19, label %20, label %21

20:                                               ; preds = %17
  store ptr null, ptr %3, align 8
  store i32 1, ptr %7, align 4
  br label %46

21:                                               ; preds = %17, %15, %2
  br label %22

22:                                               ; preds = %21
  br label %23

23:                                               ; preds = %22
  br label %24

24:                                               ; preds = %23
  %25 = load ptr, ptr %6, align 8, !tbaa !29
  %26 = call zeroext i8 @tsd_state_get(ptr noundef %25)
  %27 = zext i8 %26 to i32
  %28 = icmp ne i32 %27, 0
  %29 = xor i1 %28, true
  %30 = xor i1 %29, true
  %31 = zext i1 %30 to i32
  %32 = sext i32 %31 to i64
  %33 = call i64 @llvm.expect.i64(i64 %32, i64 0)
  %34 = icmp ne i64 %33, 0
  br i1 %34, label %35, label %40

35:                                               ; preds = %24
  %36 = load ptr, ptr %6, align 8, !tbaa !29
  %37 = load i8, ptr %5, align 1, !tbaa !25, !range !27, !noundef !28
  %38 = trunc i8 %37 to i1
  %39 = call ptr @je_tsd_fetch_slow(ptr noundef %36, i1 noundef zeroext %38)
  store ptr %39, ptr %3, align 8
  store i32 1, ptr %7, align 4
  br label %46

40:                                               ; preds = %24
  br label %41

41:                                               ; preds = %40
  br label %42

42:                                               ; preds = %41
  br label %43

43:                                               ; preds = %42
  %44 = load ptr, ptr %6, align 8, !tbaa !29
  call void @tsd_assert_fast(ptr noundef %44)
  %45 = load ptr, ptr %6, align 8, !tbaa !29
  store ptr %45, ptr %3, align 8
  store i32 1, ptr %7, align 4
  br label %46

46:                                               ; preds = %43, %35, %20
  call void @llvm.lifetime.end.p0(i64 8, ptr %6) #8
  %47 = load ptr, ptr %3, align 8
  ret ptr %47
}

; Function Attrs: alwaysinline nounwind uwtable
define internal zeroext i1 @tsd_booted_get() #3 {
  %1 = load i8, ptr @je_tsd_booted, align 1, !tbaa !25, !range !27, !noundef !28
  %2 = trunc i8 %1 to i1
  ret i1 %2
}

; Function Attrs: alwaysinline nounwind uwtable
define internal ptr @tsdn_fetch() #3 {
  %1 = alloca ptr, align 8
  %2 = call zeroext i1 @tsd_booted_get()
  br i1 %2, label %4, label %3

3:                                                ; preds = %0
  store ptr null, ptr %1, align 8
  br label %7

4:                                                ; preds = %0
  %5 = call ptr @tsd_fetch_impl(i1 noundef zeroext false, i1 noundef zeroext false)
  %6 = call ptr @tsd_tsdn(ptr noundef %5)
  store ptr %6, ptr %1, align 8
  br label %7

7:                                                ; preds = %4, %3
  %8 = load ptr, ptr %1, align 8
  ret ptr %8
}

; Function Attrs: nounwind uwtable
define internal ptr @ehooks_default_alloc(ptr noundef %0, ptr noundef %1, i64 noundef %2, i64 noundef %3, ptr noundef %4, ptr noundef %5, i32 noundef %6) #0 {
  %8 = alloca ptr, align 8
  %9 = alloca ptr, align 8
  %10 = alloca i64, align 8
  %11 = alloca i64, align 8
  %12 = alloca ptr, align 8
  %13 = alloca ptr, align 8
  %14 = alloca i32, align 4
  store ptr %0, ptr %8, align 8, !tbaa !9
  store ptr %1, ptr %9, align 8, !tbaa !18
  store i64 %2, ptr %10, align 8, !tbaa !19
  store i64 %3, ptr %11, align 8, !tbaa !19
  store ptr %4, ptr %12, align 8, !tbaa !21
  store ptr %5, ptr %13, align 8, !tbaa !21
  store i32 %6, ptr %14, align 4, !tbaa !11
  %15 = call ptr @tsdn_fetch()
  %16 = load ptr, ptr %9, align 8, !tbaa !18
  %17 = load i64, ptr %10, align 8, !tbaa !19
  %18 = load i64, ptr %11, align 8, !tbaa !19
  %19 = add i64 %18, 4095
  %20 = and i64 %19, -4096
  %21 = load ptr, ptr %12, align 8, !tbaa !21
  %22 = load ptr, ptr %13, align 8, !tbaa !21
  %23 = load i32, ptr %14, align 4, !tbaa !11
  %24 = call ptr @je_ehooks_default_alloc_impl(ptr noundef %15, ptr noundef %16, i64 noundef %17, i64 noundef %20, ptr noundef %21, ptr noundef %22, i32 noundef %23)
  ret ptr %24
}